   1              		.cpu cortex-m4
   2              		.eabi_attribute 20, 1
   3              		.eabi_attribute 21, 1
   4              		.eabi_attribute 23, 3
   5              		.eabi_attribute 24, 1
   6              		.eabi_attribute 25, 1
   7              		.eabi_attribute 26, 1
   8              		.eabi_attribute 30, 4
   9              		.eabi_attribute 34, 1
  10              		.eabi_attribute 18, 4
  11              		.file	"aes-independant.c"
  12              		.text
  13              	.Ltext0:
  14              		.cfi_sections	.debug_frame
  15              		.section	.text.aes_indep_init,"ax",%progbits
  16              		.align	1
  17              		.global	aes_indep_init
  18              		.arch armv7e-m
  19              		.syntax unified
  20              		.thumb
  21              		.thumb_func
  22              		.fpu softvfp
  24              	aes_indep_init:
  25              	.LFB0:
  26              		.file 1 ".././crypto3/aes-independant.c"
   1:.././crypto3/aes-independant.c **** /*
   2:.././crypto3/aes-independant.c ****     This file is part of the AESExplorer Example Targets
   3:.././crypto3/aes-independant.c ****     Copyright (C) 2012 Colin O'Flynn <coflynn@newae.com>
   4:.././crypto3/aes-independant.c **** 
   5:.././crypto3/aes-independant.c ****     This program is free software: you can redistribute it and/or modify
   6:.././crypto3/aes-independant.c ****     it under the terms of the GNU General Public License as published by
   7:.././crypto3/aes-independant.c ****     the Free Software Foundation, either version 3 of the License, or
   8:.././crypto3/aes-independant.c ****     (at your option) any later version.
   9:.././crypto3/aes-independant.c **** 
  10:.././crypto3/aes-independant.c ****     This program is distributed in the hope that it will be useful,
  11:.././crypto3/aes-independant.c ****     but WITHOUT ANY WARRANTY; without even the implied warranty of
  12:.././crypto3/aes-independant.c ****     MERCHANTABILITY or FITNESS FOR A PARTICULAR PURPOSE.  See the
  13:.././crypto3/aes-independant.c ****     GNU General Public License for more details.
  14:.././crypto3/aes-independant.c **** 
  15:.././crypto3/aes-independant.c ****     You should have received a copy of the GNU General Public License
  16:.././crypto3/aes-independant.c ****     along with this program.  If not, see <http://www.gnu.org/licenses/>.
  17:.././crypto3/aes-independant.c **** */
  18:.././crypto3/aes-independant.c **** 
  19:.././crypto3/aes-independant.c **** #include "aes-independant.h"
  20:.././crypto3/aes-independant.c **** #include "hal.h"
  21:.././crypto3/aes-independant.c **** 
  22:.././crypto3/aes-independant.c **** 
  23:.././crypto3/aes-independant.c **** #if defined(TINYAES128C)
  24:.././crypto3/aes-independant.c **** #include "aes.h"
  25:.././crypto3/aes-independant.c **** 
  26:.././crypto3/aes-independant.c **** uint8_t enckey[16];
  27:.././crypto3/aes-independant.c **** 
  28:.././crypto3/aes-independant.c **** void aes_indep_init(void)
  29:.././crypto3/aes-independant.c **** {
  27              		.loc 1 29 1 view -0
  28              		.cfi_startproc
  29              		@ args = 0, pretend = 0, frame = 0
  30              		@ frame_needed = 0, uses_anonymous_args = 0
  31              		@ link register save eliminated.
  30:.././crypto3/aes-independant.c **** 	;
  32              		.loc 1 30 2 view .LVU1
  31:.././crypto3/aes-independant.c **** }
  33              		.loc 1 31 1 is_stmt 0 view .LVU2
  34 0000 7047     		bx	lr
  35              		.cfi_endproc
  36              	.LFE0:
  38              		.section	.text.aes_indep_key,"ax",%progbits
  39              		.align	1
  40              		.global	aes_indep_key
  41              		.syntax unified
  42              		.thumb
  43              		.thumb_func
  44              		.fpu softvfp
  46              	aes_indep_key:
  47              	.LVL0:
  48              	.LFB1:
  32:.././crypto3/aes-independant.c **** 
  33:.././crypto3/aes-independant.c **** void aes_indep_key(uint8_t * key)
  34:.././crypto3/aes-independant.c **** {
  49              		.loc 1 34 1 is_stmt 1 view -0
  50              		.cfi_startproc
  51              		@ args = 0, pretend = 0, frame = 0
  52              		@ frame_needed = 0, uses_anonymous_args = 0
  53              		@ link register save eliminated.
  35:.././crypto3/aes-independant.c ****     AES128_ECB_indp_setkey(key);
  54              		.loc 1 35 5 view .LVU4
  55 0000 FFF7FEBF 		b	AES128_ECB_indp_setkey
  56              	.LVL1:
  57              		.loc 1 35 5 is_stmt 0 view .LVU5
  58              		.cfi_endproc
  59              	.LFE1:
  61              		.section	.text.aes_indep_enc,"ax",%progbits
  62              		.align	1
  63              		.global	aes_indep_enc
  64              		.syntax unified
  65              		.thumb
  66              		.thumb_func
  67              		.fpu softvfp
  69              	aes_indep_enc:
  70              	.LVL2:
  71              	.LFB2:
  36:.././crypto3/aes-independant.c **** }
  37:.././crypto3/aes-independant.c **** 
  38:.././crypto3/aes-independant.c **** void aes_indep_enc(uint8_t * pt)
  39:.././crypto3/aes-independant.c **** {
  72              		.loc 1 39 1 is_stmt 1 view -0
  73              		.cfi_startproc
  74              		@ args = 0, pretend = 0, frame = 0
  75              		@ frame_needed = 0, uses_anonymous_args = 0
  76              		@ link register save eliminated.
  40:.././crypto3/aes-independant.c **** 	AES128_ECB_indp_crypto(pt);
  77              		.loc 1 40 2 view .LVU7
  78 0000 FFF7FEBF 		b	AES128_ECB_indp_crypto
  79              	.LVL3:
  80              		.loc 1 40 2 is_stmt 0 view .LVU8
  81              		.cfi_endproc
  82              	.LFE2:
  84              		.section	.text.aes_indep_enc_pretrigger,"ax",%progbits
  85              		.align	1
  86              		.global	aes_indep_enc_pretrigger
  87              		.syntax unified
  88              		.thumb
  89              		.thumb_func
  90              		.fpu softvfp
  92              	aes_indep_enc_pretrigger:
  93              	.LVL4:
  94              	.LFB3:
  41:.././crypto3/aes-independant.c **** }
  42:.././crypto3/aes-independant.c **** 
  43:.././crypto3/aes-independant.c **** void aes_indep_enc_pretrigger(uint8_t * pt)
  44:.././crypto3/aes-independant.c **** {
  95              		.loc 1 44 1 is_stmt 1 view -0
  96              		.cfi_startproc
  97              		@ args = 0, pretend = 0, frame = 0
  98              		@ frame_needed = 0, uses_anonymous_args = 0
  99              		@ link register save eliminated.
  45:.././crypto3/aes-independant.c ****     ;
 100              		.loc 1 45 5 view .LVU10
  46:.././crypto3/aes-independant.c **** }
 101              		.loc 1 46 1 is_stmt 0 view .LVU11
 102 0000 7047     		bx	lr
 103              		.cfi_endproc
 104              	.LFE3:
 106              		.section	.text.aes_indep_enc_posttrigger,"ax",%progbits
 107              		.align	1
 108              		.global	aes_indep_enc_posttrigger
 109              		.syntax unified
 110              		.thumb
 111              		.thumb_func
 112              		.fpu softvfp
 114              	aes_indep_enc_posttrigger:
 115              	.LFB7:
 116              		.cfi_startproc
 117              		@ args = 0, pretend = 0, frame = 0
 118              		@ frame_needed = 0, uses_anonymous_args = 0
 119              		@ link register save eliminated.
 120 0000 7047     		bx	lr
 121              		.cfi_endproc
 122              	.LFE7:
 124              		.section	.text.aes_indep_mask,"ax",%progbits
 125              		.align	1
 126              		.global	aes_indep_mask
 127              		.syntax unified
 128              		.thumb
 129              		.thumb_func
 130              		.fpu softvfp
 132              	aes_indep_mask:
 133              	.LVL5:
 134              	.LFB5:
  47:.././crypto3/aes-independant.c **** 
  48:.././crypto3/aes-independant.c **** void aes_indep_enc_posttrigger(uint8_t * pt)
  49:.././crypto3/aes-independant.c **** {
  50:.././crypto3/aes-independant.c ****     ;
  51:.././crypto3/aes-independant.c **** }
  52:.././crypto3/aes-independant.c **** 
  53:.././crypto3/aes-independant.c **** void aes_indep_mask(uint8_t * m, uint8_t len)
  54:.././crypto3/aes-independant.c **** {
 135              		.loc 1 54 1 is_stmt 1 view -0
 136              		.cfi_startproc
 137              		@ args = 0, pretend = 0, frame = 0
 138              		@ frame_needed = 0, uses_anonymous_args = 0
 139              		@ link register save eliminated.
  55:.././crypto3/aes-independant.c **** }
 140              		.loc 1 55 1 view .LVU13
 141 0000 7047     		bx	lr
 142              		.cfi_endproc
 143              	.LFE5:
 145              		.global	enckey
 146              		.bss
 149              	enckey:
 150 0000 00000000 		.space	16
 150      00000000 
 150      00000000 
 150      00000000 
 151              		.text
 152              	.Letext0:
 153              		.file 2 ".././crypto3/tiny-AES128-C/aes.h"
 154              		.file 3 "/usr/lib/gcc/arm-none-eabi/10.3.1/include/stdint.h"