   1              		.cpu cortex-m4
   2              		.eabi_attribute 20, 1
   3              		.eabi_attribute 21, 1
   4              		.eabi_attribute 23, 3
   5              		.eabi_attribute 24, 1
   6              		.eabi_attribute 25, 1
   7              		.eabi_attribute 26, 1
   8              		.eabi_attribute 30, 4
   9              		.eabi_attribute 34, 1
  10              		.eabi_attribute 18, 4
  11              		.file	"aes-independant.c"
  12              		.text
  13              	.Ltext0:
  14              		.cfi_sections	.debug_frame
  15              		.section	.text.aes_indep_init,"ax",%progbits
  16              		.align	1
  17              		.global	aes_indep_init
  18              		.arch armv7e-m
  19              		.syntax unified
  20              		.thumb
  21              		.thumb_func
  22              		.fpu softvfp
  24              	aes_indep_init:
  25              	.LFB0:
  26              		.file 1 ".././crypto6/aes-independant.c"
   1:.././crypto6/aes-independant.c **** /*
   2:.././crypto6/aes-independant.c ****     This file is part of the AESExplorer Example Targets
   3:.././crypto6/aes-independant.c ****     Copyright (C) 2012 Colin O'Flynn <coflynn@newae.com>
   4:.././crypto6/aes-independant.c **** 
   5:.././crypto6/aes-independant.c ****     This program is free software: you can redistribute it and/or modify
   6:.././crypto6/aes-independant.c ****     it under the terms of the GNU General Public License as published by
   7:.././crypto6/aes-independant.c ****     the Free Software Foundation, either version 3 of the License, or
   8:.././crypto6/aes-independant.c ****     (at your option) any later version.
   9:.././crypto6/aes-independant.c **** 
  10:.././crypto6/aes-independant.c ****     This program is distributed in the hope that it will be useful,
  11:.././crypto6/aes-independant.c ****     but WITHOUT ANY WARRANTY; without even the implied warranty of
  12:.././crypto6/aes-independant.c ****     MERCHANTABILITY or FITNESS FOR A PARTICULAR PURPOSE.  See the
  13:.././crypto6/aes-independant.c ****     GNU General Public License for more details.
  14:.././crypto6/aes-independant.c **** 
  15:.././crypto6/aes-independant.c ****     You should have received a copy of the GNU General Public License
  16:.././crypto6/aes-independant.c ****     along with this program.  If not, see <http://www.gnu.org/licenses/>.
  17:.././crypto6/aes-independant.c **** */
  18:.././crypto6/aes-independant.c **** 
  19:.././crypto6/aes-independant.c **** #include "aes-independant.h"
  20:.././crypto6/aes-independant.c **** #include "hal.h"
  21:.././crypto6/aes-independant.c **** 
  22:.././crypto6/aes-independant.c **** #if defined(TINYAES128C)
  23:.././crypto6/aes-independant.c **** #include "aes.h"
  24:.././crypto6/aes-independant.c **** 
  25:.././crypto6/aes-independant.c **** uint8_t enckey[16];
  26:.././crypto6/aes-independant.c **** 
  27:.././crypto6/aes-independant.c **** void aes_indep_init(void)
  28:.././crypto6/aes-independant.c **** {
  27              		.loc 1 28 1 view -0
  28              		.cfi_startproc
  29              		@ args = 0, pretend = 0, frame = 0
  30              		@ frame_needed = 0, uses_anonymous_args = 0
  31              		@ link register save eliminated.
  29:.././crypto6/aes-independant.c ****     ;
  32              		.loc 1 29 5 view .LVU1
  30:.././crypto6/aes-independant.c **** }
  33              		.loc 1 30 1 is_stmt 0 view .LVU2
  34 0000 7047     		bx	lr
  35              		.cfi_endproc
  36              	.LFE0:
  38              		.section	.text.aes_indep_key,"ax",%progbits
  39              		.align	1
  40              		.global	aes_indep_key
  41              		.syntax unified
  42              		.thumb
  43              		.thumb_func
  44              		.fpu softvfp
  46              	aes_indep_key:
  47              	.LVL0:
  48              	.LFB1:
  31:.././crypto6/aes-independant.c **** 
  32:.././crypto6/aes-independant.c **** void aes_indep_key(uint8_t *key)
  33:.././crypto6/aes-independant.c **** {
  49              		.loc 1 33 1 is_stmt 1 view -0
  50              		.cfi_startproc
  51              		@ args = 0, pretend = 0, frame = 0
  52              		@ frame_needed = 0, uses_anonymous_args = 0
  53              		@ link register save eliminated.
  34:.././crypto6/aes-independant.c ****     AES128_ECB_indp_setkey(key);
  54              		.loc 1 34 5 view .LVU4
  55 0000 FFF7FEBF 		b	AES128_ECB_indp_setkey
  56              	.LVL1:
  57              		.loc 1 34 5 is_stmt 0 view .LVU5
  58              		.cfi_endproc
  59              	.LFE1:
  61              		.section	.text.aes_indep_enc,"ax",%progbits
  62              		.align	1
  63              		.global	aes_indep_enc
  64              		.syntax unified
  65              		.thumb
  66              		.thumb_func
  67              		.fpu softvfp
  69              	aes_indep_enc:
  70              	.LVL2:
  71              	.LFB2:
  35:.././crypto6/aes-independant.c **** }
  36:.././crypto6/aes-independant.c **** 
  37:.././crypto6/aes-independant.c **** void aes_indep_enc(uint8_t *pt)
  38:.././crypto6/aes-independant.c **** {
  72              		.loc 1 38 1 is_stmt 1 view -0
  73              		.cfi_startproc
  74              		@ args = 0, pretend = 0, frame = 0
  75              		@ frame_needed = 0, uses_anonymous_args = 0
  76              		@ link register save eliminated.
  39:.././crypto6/aes-independant.c ****     AES128_ECB_indp_crypto(pt);
  77              		.loc 1 39 5 view .LVU7
  78 0000 FFF7FEBF 		b	AES128_ECB_indp_crypto
  79              	.LVL3:
  80              		.loc 1 39 5 is_stmt 0 view .LVU8
  81              		.cfi_endproc
  82              	.LFE2:
  84              		.section	.text.aes_indep_enc_debug,"ax",%progbits
  85              		.align	1
  86              		.global	aes_indep_enc_debug
  87              		.syntax unified
  88              		.thumb
  89              		.thumb_func
  90              		.fpu softvfp
  92              	aes_indep_enc_debug:
  93              	.LVL4:
  94              	.LFB3:
  40:.././crypto6/aes-independant.c **** }
  41:.././crypto6/aes-independant.c **** 
  42:.././crypto6/aes-independant.c **** void aes_indep_enc_debug(uint8_t *pt)
  43:.././crypto6/aes-independant.c **** {
  95              		.loc 1 43 1 is_stmt 1 view -0
  96              		.cfi_startproc
  97              		@ args = 0, pretend = 0, frame = 0
  98              		@ frame_needed = 0, uses_anonymous_args = 0
  99              		@ link register save eliminated.
  44:.././crypto6/aes-independant.c ****     AES128_ECB_indp_crypto_debug(pt);
 100              		.loc 1 44 5 view .LVU10
 101 0000 FFF7FEBF 		b	AES128_ECB_indp_crypto_debug
 102              	.LVL5:
 103              		.loc 1 44 5 is_stmt 0 view .LVU11
 104              		.cfi_endproc
 105              	.LFE3:
 107              		.section	.text.aes_indep_enc_pretrigger,"ax",%progbits
 108              		.align	1
 109              		.global	aes_indep_enc_pretrigger
 110              		.syntax unified
 111              		.thumb
 112              		.thumb_func
 113              		.fpu softvfp
 115              	aes_indep_enc_pretrigger:
 116              	.LVL6:
 117              	.LFB4:
  45:.././crypto6/aes-independant.c **** }
  46:.././crypto6/aes-independant.c **** 
  47:.././crypto6/aes-independant.c **** void aes_indep_enc_pretrigger(uint8_t *pt)
  48:.././crypto6/aes-independant.c **** {
 118              		.loc 1 48 1 is_stmt 1 view -0
 119              		.cfi_startproc
 120              		@ args = 0, pretend = 0, frame = 0
 121              		@ frame_needed = 0, uses_anonymous_args = 0
 122              		@ link register save eliminated.
  49:.././crypto6/aes-independant.c ****     ;
 123              		.loc 1 49 5 view .LVU13
  50:.././crypto6/aes-independant.c **** }
 124              		.loc 1 50 1 is_stmt 0 view .LVU14
 125 0000 7047     		bx	lr
 126              		.cfi_endproc
 127              	.LFE4:
 129              		.section	.text.aes_indep_enc_posttrigger,"ax",%progbits
 130              		.align	1
 131              		.global	aes_indep_enc_posttrigger
 132              		.syntax unified
 133              		.thumb
 134              		.thumb_func
 135              		.fpu softvfp
 137              	aes_indep_enc_posttrigger:
 138              	.LFB8:
 139              		.cfi_startproc
 140              		@ args = 0, pretend = 0, frame = 0
 141              		@ frame_needed = 0, uses_anonymous_args = 0
 142              		@ link register save eliminated.
 143 0000 7047     		bx	lr
 144              		.cfi_endproc
 145              	.LFE8:
 147              		.section	.text.aes_indep_mask,"ax",%progbits
 148              		.align	1
 149              		.global	aes_indep_mask
 150              		.syntax unified
 151              		.thumb
 152              		.thumb_func
 153              		.fpu softvfp
 155              	aes_indep_mask:
 156              	.LVL7:
 157              	.LFB6:
  51:.././crypto6/aes-independant.c **** 
  52:.././crypto6/aes-independant.c **** void aes_indep_enc_posttrigger(uint8_t *pt)
  53:.././crypto6/aes-independant.c **** {
  54:.././crypto6/aes-independant.c ****     ;
  55:.././crypto6/aes-independant.c **** }
  56:.././crypto6/aes-independant.c **** 
  57:.././crypto6/aes-independant.c **** void aes_indep_mask(uint8_t *m, uint8_t len)
  58:.././crypto6/aes-independant.c **** {
 158              		.loc 1 58 1 is_stmt 1 view -0
 159              		.cfi_startproc
 160              		@ args = 0, pretend = 0, frame = 0
 161              		@ frame_needed = 0, uses_anonymous_args = 0
 162              		@ link register save eliminated.
  59:.././crypto6/aes-independant.c **** }
 163              		.loc 1 59 1 view .LVU16
 164 0000 7047     		bx	lr
 165              		.cfi_endproc
 166              	.LFE6:
 168              		.global	enckey
 169              		.bss
 172              	enckey:
 173 0000 00000000 		.space	16
 173      00000000 
 173      00000000 
 173      00000000 
 174              		.text
 175              	.Letext0:
 176              		.file 2 ".././crypto6/tiny-AES128-C/aes.h"
 177              		.file 3 "/usr/lib/gcc/arm-none-eabi/10.3.1/include/stdint.h"